target datalayout = "e-m:e-p270:32:32-p271:32:32-p272:64:64-i64:64-i128:128-f80:128-n8:16:32:64-S128"
target triple = "x86_64-pc-linux-gnu"

%struct.dt_imageio_jpeg_error_mgr = type { %struct.jpeg_error_mgr, [1 x %struct.__jmp_buf_tag] }
%struct.jpeg_error_mgr = type { ptr, ptr, ptr, ptr, ptr, i32, %union.anon, i32, i64, ptr, i32, ptr, i32, i32 }
%union.anon = type { [8 x i32], [48 x i8] }
%struct.__jmp_buf_tag = type { [8 x i64], i32, %struct.__sigset_t }
%struct.__sigset_t = type { [16 x i64] }
%struct.dt_imageio_jpeg_t = type { i32, i32, %struct.jpeg_source_mgr, %struct.jpeg_destination_mgr, %struct.jpeg_decompress_struct, %struct.jpeg_compress_struct, ptr }
%struct.jpeg_source_mgr = type { ptr, i64, ptr, ptr, ptr, ptr, ptr }
%struct.jpeg_destination_mgr = type { ptr, i64, ptr, ptr, ptr }
%struct.jpeg_decompress_struct = type { ptr, ptr, ptr, ptr, i32, i32, ptr, i32, i32, i32, i32, i32, i32, i32, double, i32, i32, i32, i32, i32, i32, i32, i32, i32, i32, i32, i32, i32, i32, i32, i32, i32, i32, ptr, i32, i32, i32, i32, i32, ptr, [4 x ptr], [4 x ptr], [4 x ptr], i32, ptr, i32, i32, i32, [16 x i8], [16 x i8], [16 x i8], i32, i32, i8, i8, i8, i16, i16, i32, i8, i32, ptr, i32, i32, i32, i32, i32, ptr, i32, [4 x ptr], i32, i32, i32, [10 x i32], i32, i32, i32, i32, i32, ptr, i32, i32, ptr, ptr, ptr, ptr, ptr, ptr, ptr, ptr, ptr, ptr, ptr }
%struct.jpeg_compress_struct = type { ptr, ptr, ptr, ptr, i32, i32, ptr, i32, i32, i32, i32, double, i32, i32, i32, i32, i32, i32, i32, ptr, [4 x ptr], [4 x i32], [4 x ptr], [4 x ptr], [16 x i8], [16 x i8], [16 x i8], i32, ptr, i32, i32, i32, i32, i32, i32, i32, i32, i32, i32, i8, i8, i8, i16, i16, i32, i32, i32, i32, i32, i32, i32, i32, i32, [4 x ptr], i32, i32, i32, [10 x i32], i32, i32, i32, i32, i32, ptr, i32, ptr, ptr, ptr, ptr, ptr, ptr, ptr, ptr, ptr, ptr, i32 }
%struct.jpeg_component_info = type { i32, i32, i32, i32, i32, i32, i32, i32, i32, i32, i32, i32, i32, i32, i32, i32, i32, i32, i32, i32, ptr, ptr }

; Function Attrs: inlinehint nounwind uwtable
define internal ptr @dt_alloc_align_uint8(i64 noundef %0) #4 {
  %2 = alloca i64, align 8
  store i64 %0, ptr %2, align 8, !tbaa !10
  %3 = load i64, ptr %2, align 8, !tbaa !10
  %4 = mul i64 %3, 1
  %5 = call ptr @dt_alloc_aligned(i64 noundef %4)
  call void @llvm.assume(i1 true) [ "align"(ptr %5, i64 64) ]
  ret ptr %5
}

; Function Attrs: nounwind uwtable
define i32 @dt_imageio_jpeg_compress(ptr noundef %0, ptr noundef %1, i32 noundef %2, i32 noundef %3, i32 noundef %4) #0 {
  %6 = alloca i32, align 4
  %7 = alloca ptr, align 8
  %8 = alloca ptr, align 8
  %9 = alloca i32, align 4
  %10 = alloca i32, align 4
  %11 = alloca i32, align 4
  %12 = alloca %struct.dt_imageio_jpeg_error_mgr, align 8
  %13 = alloca %struct.dt_imageio_jpeg_t, align 8
  %14 = alloca i32, align 4
  %15 = alloca ptr, align 8
  %16 = alloca ptr, align 8
  %17 = alloca [1 x ptr], align 8
  %18 = alloca i32, align 4
  %19 = alloca i32, align 4
  store ptr %0, ptr %7, align 8, !tbaa !82
  store ptr %1, ptr %8, align 8, !tbaa !82
  store i32 %2, ptr %9, align 4, !tbaa !83
  store i32 %3, ptr %10, align 4, !tbaa !83
  store i32 %4, ptr %11, align 4, !tbaa !83
  call void @llvm.lifetime.start.p0(i64 368, ptr %12) #9
  call void @llvm.lifetime.start.p0(i64 1352, ptr %13) #9
  %20 = getelementptr inbounds nuw %struct.dt_imageio_jpeg_t, ptr %13, i32 0, i32 3
  %21 = getelementptr inbounds nuw %struct.jpeg_destination_mgr, ptr %20, i32 0, i32 2
  store ptr @dt_imageio_jpeg_init_destination, ptr %21, align 8, !tbaa !88
  %22 = getelementptr inbounds nuw %struct.dt_imageio_jpeg_t, ptr %13, i32 0, i32 3
  %23 = getelementptr inbounds nuw %struct.jpeg_destination_mgr, ptr %22, i32 0, i32 3
  store ptr @dt_imageio_jpeg_empty_output_buffer, ptr %23, align 8, !tbaa !89
  %24 = getelementptr inbounds nuw %struct.dt_imageio_jpeg_t, ptr %13, i32 0, i32 3
  %25 = getelementptr inbounds nuw %struct.jpeg_destination_mgr, ptr %24, i32 0, i32 4
  store ptr @dt_imageio_jpeg_term_destination, ptr %25, align 8, !tbaa !90
  %26 = load ptr, ptr %8, align 8, !tbaa !82
  %27 = getelementptr inbounds nuw %struct.dt_imageio_jpeg_t, ptr %13, i32 0, i32 3
  %28 = getelementptr inbounds nuw %struct.jpeg_destination_mgr, ptr %27, i32 0, i32 0
  store ptr %26, ptr %28, align 8, !tbaa !91
  %29 = load i32, ptr %9, align 4, !tbaa !83
  %30 = sext i32 %29 to i64
  %31 = mul i64 4, %30
  %32 = load i32, ptr %10, align 4, !tbaa !83
  %33 = sext i32 %32 to i64
  %34 = mul i64 %31, %33
  %35 = getelementptr inbounds nuw %struct.dt_imageio_jpeg_t, ptr %13, i32 0, i32 3
  %36 = getelementptr inbounds nuw %struct.jpeg_destination_mgr, ptr %35, i32 0, i32 1
  store i64 %34, ptr %36, align 8, !tbaa !92
  %37 = getelementptr inbounds nuw %struct.dt_imageio_jpeg_error_mgr, ptr %12, i32 0, i32 0
  %38 = call ptr @jpeg_std_error(ptr noundef %37)
  %39 = getelementptr inbounds nuw %struct.dt_imageio_jpeg_t, ptr %13, i32 0, i32 5
  %40 = getelementptr inbounds nuw %struct.jpeg_compress_struct, ptr %39, i32 0, i32 0
  store ptr %38, ptr %40, align 8, !tbaa !93
  %41 = getelementptr inbounds nuw %struct.dt_imageio_jpeg_error_mgr, ptr %12, i32 0, i32 0
  %42 = getelementptr inbounds nuw %struct.jpeg_error_mgr, ptr %41, i32 0, i32 0
  store ptr @dt_imageio_jpeg_error_exit, ptr %42, align 8, !tbaa !60
  %43 = getelementptr inbounds nuw %struct.dt_imageio_jpeg_error_mgr, ptr %12, i32 0, i32 1
  %44 = getelementptr inbounds [1 x %struct.__jmp_buf_tag], ptr %43, i64 0, i64 0
  %45 = call i32 @_setjmp(ptr noundef %44) #10
  %46 = icmp ne i32 %45, 0
  br i1 %46, label %47, label %49

47:                                               ; preds = %5
  %48 = getelementptr inbounds nuw %struct.dt_imageio_jpeg_t, ptr %13, i32 0, i32 5
  call void @jpeg_destroy_compress(ptr noundef %48)
  store i32 1, ptr %6, align 4
  store i32 1, ptr %14, align 4
  br label %169

49:                                               ; preds = %5
  %50 = getelementptr inbounds nuw %struct.dt_imageio_jpeg_t, ptr %13, i32 0, i32 5
  call void @jpeg_CreateCompress(ptr noundef %50, i32 noundef 80, i64 noundef 584)
  %51 = getelementptr inbounds nuw %struct.dt_imageio_jpeg_t, ptr %13, i32 0, i32 3
  %52 = getelementptr inbounds nuw %struct.dt_imageio_jpeg_t, ptr %13, i32 0, i32 5
  %53 = getelementptr inbounds nuw %struct.jpeg_compress_struct, ptr %52, i32 0, i32 6
  store ptr %51, ptr %53, align 8, !tbaa !94
  %54 = load i32, ptr %9, align 4, !tbaa !83
  %55 = getelementptr inbounds nuw %struct.dt_imageio_jpeg_t, ptr %13, i32 0, i32 5
  %56 = getelementptr inbounds nuw %struct.jpeg_compress_struct, ptr %55, i32 0, i32 7
  store i32 %54, ptr %56, align 8, !tbaa !95
  %57 = load i32, ptr %10, align 4, !tbaa !83
  %58 = getelementptr inbounds nuw %struct.dt_imageio_jpeg_t, ptr %13, i32 0, i32 5
  %59 = getelementptr inbounds nuw %struct.jpeg_compress_struct, ptr %58, i32 0, i32 8
  store i32 %57, ptr %59, align 4, !tbaa !96
  %60 = getelementptr inbounds nuw %struct.dt_imageio_jpeg_t, ptr %13, i32 0, i32 5
  %61 = getelementptr inbounds nuw %struct.jpeg_compress_struct, ptr %60, i32 0, i32 9
  store i32 3, ptr %61, align 8, !tbaa !97
  %62 = getelementptr inbounds nuw %struct.dt_imageio_jpeg_t, ptr %13, i32 0, i32 5
  %63 = getelementptr inbounds nuw %struct.jpeg_compress_struct, ptr %62, i32 0, i32 10
  store i32 2, ptr %63, align 4, !tbaa !98
  %64 = getelementptr inbounds nuw %struct.dt_imageio_jpeg_t, ptr %13, i32 0, i32 5
  call void @jpeg_set_defaults(ptr noundef %64)
  %65 = getelementptr inbounds nuw %struct.dt_imageio_jpeg_t, ptr %13, i32 0, i32 5
  %66 = load i32, ptr %11, align 4, !tbaa !83
  call void @jpeg_set_quality(ptr noundef %65, i32 noundef %66, i32 noundef 1)
  %67 = load i32, ptr %11, align 4, !tbaa !83
  %68 = icmp sgt i32 %67, 90
  br i1 %68, label %69, label %75

69:                                               ; preds = %49
  %70 = getelementptr inbounds nuw %struct.dt_imageio_jpeg_t, ptr %13, i32 0, i32 5
  %71 = getelementptr inbounds nuw %struct.jpeg_compress_struct, ptr %70, i32 0, i32 19
  %72 = load ptr, ptr %71, align 8, !tbaa !99
  %73 = getelementptr inbounds %struct.jpeg_component_info, ptr %72, i64 0
  %74 = getelementptr inbounds nuw %struct.jpeg_component_info, ptr %73, i32 0, i32 3
  store i32 1, ptr %74, align 4, !tbaa !100
  br label %75

75:                                               ; preds = %69, %49
  %76 = load i32, ptr %11, align 4, !tbaa !83
  %77 = icmp sgt i32 %76, 92
  br i1 %77, label %78, label %84

78:                                               ; preds = %75
  %79 = getelementptr inbounds nuw %struct.dt_imageio_jpeg_t, ptr %13, i32 0, i32 5
  %80 = getelementptr inbounds nuw %struct.jpeg_compress_struct, ptr %79, i32 0, i32 19
  %81 = load ptr, ptr %80, align 8, !tbaa !99
  %82 = getelementptr inbounds %struct.jpeg_component_info, ptr %81, i64 0
  %83 = getelementptr inbounds nuw %struct.jpeg_component_info, ptr %82, i32 0, i32 2
  store i32 1, ptr %83, align 8, !tbaa !102
  br label %84

84:                                               ; preds = %78, %75
  %85 = getelementptr inbounds nuw %struct.dt_imageio_jpeg_t, ptr %13, i32 0, i32 5
  call void @jpeg_start_compress(ptr noundef %85, i32 noundef 1)
  call void @llvm.lifetime.start.p0(i64 8, ptr %15) #9
  %86 = load i32, ptr %9, align 4, !tbaa !83
  %87 = mul nsw i32 3, %86
  %88 = sext i32 %87 to i64
  %89 = call ptr @dt_alloc_align_uint8(i64 noundef %88)
  store ptr %89, ptr %15, align 8, !tbaa !82
  call void @llvm.lifetime.start.p0(i64 8, ptr %16) #9
  br label %90

90:                                               ; preds = %148, %84
  %91 = load ptr, ptr %15, align 8, !tbaa !82
  %92 = icmp ne ptr %91, null
  br i1 %92, label %93, label %101

93:                                               ; preds = %90
  %94 = getelementptr inbounds nuw %struct.dt_imageio_jpeg_t, ptr %13, i32 0, i32 5
  %95 = getelementptr inbounds nuw %struct.jpeg_compress_struct, ptr %94, i32 0, i32 45
  %96 = load i32, ptr %95, align 4, !tbaa !103
  %97 = getelementptr inbounds nuw %struct.dt_imageio_jpeg_t, ptr %13, i32 0, i32 5
  %98 = getelementptr inbounds nuw %struct.jpeg_compress_struct, ptr %97, i32 0, i32 8
  %99 = load i32, ptr %98, align 4, !tbaa !96
  %100 = icmp ult i32 %96, %99
  br label %101

101:                                              ; preds = %93, %90
  %102 = phi i1 [ false, %90 ], [ %100, %93 ]
  br i1 %102, label %103, label %154

103:                                              ; preds = %101
  call void @llvm.lifetime.start.p0(i64 8, ptr %17) #9
  %104 = load ptr, ptr %7, align 8, !tbaa !82
  %105 = getelementptr inbounds nuw %struct.dt_imageio_jpeg_t, ptr %13, i32 0, i32 5
  %106 = getelementptr inbounds nuw %struct.jpeg_compress_struct, ptr %105, i32 0, i32 45
  %107 = load i32, ptr %106, align 4, !tbaa !103
  %108 = getelementptr inbounds nuw %struct.dt_imageio_jpeg_t, ptr %13, i32 0, i32 5
  %109 = getelementptr inbounds nuw %struct.jpeg_compress_struct, ptr %108, i32 0, i32 7
  %110 = load i32, ptr %109, align 8, !tbaa !95
  %111 = mul i32 %107, %110
  %112 = mul i32 %111, 4
  %113 = zext i32 %112 to i64
  %114 = getelementptr inbounds nuw i8, ptr %104, i64 %113
  store ptr %114, ptr %16, align 8, !tbaa !82
  call void @llvm.lifetime.start.p0(i64 4, ptr %18) #9
  store i32 0, ptr %18, align 4, !tbaa !83
  br label %115

115:                                              ; preds = %145, %103
  %116 = load i32, ptr %18, align 4, !tbaa !83
  %117 = load i32, ptr %9, align 4, !tbaa !83
  %118 = icmp slt i32 %116, %117
  br i1 %118, label %120, label %119

119:                                              ; preds = %115
  store i32 4, ptr %14, align 4
  call void @llvm.lifetime.end.p0(i64 4, ptr %18) #9
  br label %148

120:                                              ; preds = %115
  call void @llvm.lifetime.start.p0(i64 4, ptr %19) #9
  store i32 0, ptr %19, align 4, !tbaa !83
  br label %121

121:                                              ; preds = %141, %120
  %122 = load i32, ptr %19, align 4, !tbaa !83
  %123 = icmp slt i32 %122, 3
  br i1 %123, label %125, label %124

124:                                              ; preds = %121
  store i32 7, ptr %14, align 4
  call void @llvm.lifetime.end.p0(i64 4, ptr %19) #9
  br label %144

125:                                              ; preds = %121
  %126 = load ptr, ptr %16, align 8, !tbaa !82
  %127 = load i32, ptr %18, align 4, !tbaa !83
  %128 = mul nsw i32 4, %127
  %129 = load i32, ptr %19, align 4, !tbaa !83
  %130 = add nsw i32 %128, %129
  %131 = sext i32 %130 to i64
  %132 = getelementptr inbounds i8, ptr %126, i64 %131
  %133 = load i8, ptr %132, align 1, !tbaa !87
  %134 = load ptr, ptr %15, align 8, !tbaa !82
  %135 = load i32, ptr %18, align 4, !tbaa !83
  %136 = mul nsw i32 3, %135
  %137 = load i32, ptr %19, align 4, !tbaa !83
  %138 = add nsw i32 %136, %137
  %139 = sext i32 %138 to i64
  %140 = getelementptr inbounds i8, ptr %134, i64 %139
  store i8 %133, ptr %140, align 1, !tbaa !87
  br label %141

141:                                              ; preds = %125
  %142 = load i32, ptr %19, align 4, !tbaa !83
  %143 = add nsw i32 %142, 1
  store i32 %143, ptr %19, align 4, !tbaa !83
  br label %121

144:                                              ; preds = %124
  br label %145

145:                                              ; preds = %144
  %146 = load i32, ptr %18, align 4, !tbaa !83
  %147 = add nsw i32 %146, 1
  store i32 %147, ptr %18, align 4, !tbaa !83
  br label %115

148:                                              ; preds = %119
  %149 = load ptr, ptr %15, align 8, !tbaa !82
  %150 = getelementptr inbounds [1 x ptr], ptr %17, i64 0, i64 0
  store ptr %149, ptr %150, align 8, !tbaa !82
  %151 = getelementptr inbounds nuw %struct.dt_imageio_jpeg_t, ptr %13, i32 0, i32 5
  %152 = getelementptr inbounds [1 x ptr], ptr %17, i64 0, i64 0
  %153 = call i32 @jpeg_write_scanlines(ptr noundef %151, ptr noundef %152, i32 noundef 1)
  call void @llvm.lifetime.end.p0(i64 8, ptr %17) #9
  br label %90

154:                                              ; preds = %101
  %155 = getelementptr inbounds nuw %struct.dt_imageio_jpeg_t, ptr %13, i32 0, i32 5
  call void @jpeg_finish_compress(ptr noundef %155)
  %156 = load ptr, ptr %15, align 8, !tbaa !82
  call void @free(ptr noundef %156) #9
  %157 = getelementptr inbounds nuw %struct.dt_imageio_jpeg_t, ptr %13, i32 0, i32 5
  call void @jpeg_destroy_compress(ptr noundef %157)
  %158 = load i32, ptr %9, align 4, !tbaa !83
  %159 = sext i32 %158 to i64
  %160 = mul i64 4, %159
  %161 = load i32, ptr %10, align 4, !tbaa !83
  %162 = sext i32 %161 to i64
  %163 = mul i64 %160, %162
  %164 = getelementptr inbounds nuw %struct.dt_imageio_jpeg_t, ptr %13, i32 0, i32 3
  %165 = getelementptr inbounds nuw %struct.jpeg_destination_mgr, ptr %164, i32 0, i32 1
  %166 = load i64, ptr %165, align 8, !tbaa !92
  %167 = sub i64 %163, %166
  %168 = trunc i64 %167 to i32
  store i32 %168, ptr %6, align 4
  store i32 1, ptr %14, align 4
  call void @llvm.lifetime.end.p0(i64 8, ptr %16) #9
  call void @llvm.lifetime.end.p0(i64 8, ptr %15) #9
  br label %169

169:                                              ; preds = %154, %47
  call void @llvm.lifetime.end.p0(i64 1352, ptr %13) #9
  call void @llvm.lifetime.end.p0(i64 368, ptr %12) #9
  %170 = load i32, ptr %6, align 4
  ret i32 %170
}