; Function Attrs: nounwind uwtable
define i32 @dt_imageio_jpeg_compress(ptr noundef readonly captures(none) %0, ptr noundef %1, i32 noundef %2, i32 noundef %3, i32 noundef %4) local_unnamed_addr #0 {
  %6 = alloca %struct.dt_imageio_jpeg_error_mgr, align 8
  %7 = alloca %struct.dt_imageio_jpeg_t, align 8
  %8 = alloca [1 x ptr], align 8
  call void @llvm.lifetime.start.p0(i64 368, ptr nonnull %6) #14
  call void @llvm.lifetime.start.p0(i64 1352, ptr nonnull %7) #14
  %9 = getelementptr inbounds nuw i8, ptr %7, i64 64
  %10 = getelementptr inbounds nuw i8, ptr %7, i64 80
  store ptr @dt_imageio_jpeg_init_destination, ptr %10, align 8, !tbaa !77
  %11 = getelementptr inbounds nuw i8, ptr %7, i64 88
  store ptr @dt_imageio_jpeg_empty_output_buffer, ptr %11, align 8, !tbaa !78
  %12 = getelementptr inbounds nuw i8, ptr %7, i64 96
  store ptr @dt_imageio_jpeg_term_destination, ptr %12, align 8, !tbaa !79
  store ptr %1, ptr %9, align 8, !tbaa !80
  %13 = sext i32 %2 to i64
  %14 = shl nsw i64 %13, 2
  %15 = sext i32 %3 to i64
  %16 = mul i64 %14, %15
  %17 = getelementptr inbounds nuw i8, ptr %7, i64 72
  store i64 %16, ptr %17, align 8, !tbaa !81
  %18 = call ptr @jpeg_std_error(ptr noundef nonnull %6) #14
  %19 = getelementptr inbounds nuw i8, ptr %7, i64 760
  store ptr %18, ptr %19, align 8, !tbaa !82
  store ptr @dt_imageio_jpeg_error_exit, ptr %6, align 8, !tbaa !56
  %20 = getelementptr inbounds nuw i8, ptr %6, i64 168
  %21 = call i32 @_setjmp(ptr noundef nonnull %20) #15
  %.not = icmp eq i32 %21, 0
  br i1 %.not, label %23, label %22

22:                                               ; preds = %5
  call void @jpeg_destroy_compress(ptr noundef nonnull %19) #14
  br label %69

23:                                               ; preds = %5
  call void @jpeg_CreateCompress(ptr noundef nonnull %19, i32 noundef 80, i64 noundef 584) #14
  %24 = getelementptr inbounds nuw i8, ptr %7, i64 800
  store ptr %9, ptr %24, align 8, !tbaa !83
  %25 = getelementptr inbounds nuw i8, ptr %7, i64 808
  store i32 %2, ptr %25, align 8, !tbaa !84
  %26 = getelementptr inbounds nuw i8, ptr %7, i64 812
  store i32 %3, ptr %26, align 4, !tbaa !85
  %27 = getelementptr inbounds nuw i8, ptr %7, i64 816
  store i32 3, ptr %27, align 8, !tbaa !86
  %28 = getelementptr inbounds nuw i8, ptr %7, i64 820
  store i32 2, ptr %28, align 4, !tbaa !87
  call void @jpeg_set_defaults(ptr noundef nonnull %19) #14
  call void @jpeg_set_quality(ptr noundef nonnull %19, i32 noundef %4, i32 noundef 1) #14
  %29 = icmp sgt i32 %4, 90
  br i1 %29, label %30, label %.thread

30:                                               ; preds = %23
  %31 = getelementptr inbounds nuw i8, ptr %7, i64 864
  %32 = load ptr, ptr %31, align 8, !tbaa !88
  %33 = getelementptr inbounds nuw i8, ptr %32, i64 12
  store i32 1, ptr %33, align 4, !tbaa !89
  %34 = icmp samesign ugt i32 %4, 92
  br i1 %34, label %35, label %.thread

35:                                               ; preds = %30
  %36 = getelementptr inbounds nuw i8, ptr %32, i64 8
  store i32 1, ptr %36, align 8, !tbaa !91
  br label %.thread

.thread:                                          ; preds = %23, %35, %30
  call void @jpeg_start_compress(ptr noundef nonnull %19, i32 noundef 1) #14
  %37 = mul nsw i32 %2, 3
  %38 = sext i32 %37 to i64
  %39 = call ptr @dt_alloc_aligned(i64 noundef range(i64 -2147483648, 2147483648) %38) #14
  %.fr33 = freeze ptr %39
  call void @llvm.assume(i1 true) [ "align"(ptr %.fr33, i64 64) ]
  %40 = icmp ne ptr %.fr33, null
  %41 = getelementptr inbounds nuw i8, ptr %7, i64 1100
  %42 = load i32, ptr %41, align 4
  %43 = load i32, ptr %26, align 4
  %44 = icmp ult i32 %42, %43
  %45 = select i1 %40, i1 %44, i1 false
  br i1 %45, label %.lr.ph, label %._crit_edge31

.lr.ph:                                           ; preds = %.thread
  %46 = icmp sgt i32 %2, 0
  br i1 %46, label %.preheader.lr.ph.us.preheader, label %.lr.ph.split.split

.preheader.lr.ph.us.preheader:                    ; preds = %.lr.ph
  %wide.trip.count49 = zext nneg i32 %2 to i64
  br label %.preheader.lr.ph.us

.preheader.lr.ph.us:                              ; preds = %.preheader.lr.ph.us.preheader, %._crit_edge.us
  %47 = phi i32 [ %59, %._crit_edge.us ], [ %42, %.preheader.lr.ph.us.preheader ]
  call void @llvm.lifetime.start.p0(i64 8, ptr nonnull %8) #14
  %48 = load i32, ptr %25, align 8, !tbaa !84
  %49 = shl i32 %47, 2
  %50 = mul i32 %49, %48
  %51 = zext i32 %50 to i64
  %52 = getelementptr inbounds nuw i8, ptr %0, i64 %51
  br label %.preheader.us

53:                                               ; preds = %54
  %indvars.iv.next47 = add nuw nsw i64 %indvars.iv46, 1
  %exitcond50.not = icmp eq i64 %indvars.iv.next47, %wide.trip.count49
  br i1 %exitcond50.not, label %._crit_edge.us, label %.preheader.us

54:                                               ; preds = %.preheader.us, %54
  %indvars.iv42 = phi i64 [ 0, %.preheader.us ], [ %indvars.iv.next43, %54 ]
  %gep = getelementptr inbounds nuw i8, ptr %invariant.gep, i64 %indvars.iv42
  %55 = load i8, ptr %gep, align 1, !tbaa !76
  %gep53 = getelementptr inbounds nuw i8, ptr %invariant.gep52, i64 %indvars.iv42
  store i8 %55, ptr %gep53, align 1, !tbaa !76
  %indvars.iv.next43 = add nuw nsw i64 %indvars.iv42, 1
  %exitcond45.not = icmp eq i64 %indvars.iv.next43, 3
  br i1 %exitcond45.not, label %53, label %54

.preheader.us:                                    ; preds = %.preheader.lr.ph.us, %53
  %indvars.iv46 = phi i64 [ 0, %.preheader.lr.ph.us ], [ %indvars.iv.next47, %53 ]
  %56 = shl nsw i64 %indvars.iv46, 2
  %57 = mul nuw nsw i64 %indvars.iv46, 3
  %invariant.gep = getelementptr inbounds nuw i8, ptr %52, i64 %56
  %invariant.gep52 = getelementptr inbounds nuw i8, ptr %.fr33, i64 %57
  br label %54

._crit_edge.us:                                   ; preds = %53
  store ptr %.fr33, ptr %8, align 8, !tbaa !72
  %58 = call i32 @jpeg_write_scanlines(ptr noundef nonnull %19, ptr noundef nonnull %8, i32 noundef 1) #14
  call void @llvm.lifetime.end.p0(i64 8, ptr nonnull %8) #14
  %59 = load i32, ptr %41, align 4
  %60 = load i32, ptr %26, align 4
  %61 = icmp ult i32 %59, %60
  br i1 %61, label %.preheader.lr.ph.us, label %._crit_edge31

.lr.ph.split.split:                               ; preds = %.lr.ph, %.lr.ph.split.split
  call void @llvm.lifetime.start.p0(i64 8, ptr nonnull %8) #14
  store ptr %.fr33, ptr %8, align 8, !tbaa !72
  %62 = call i32 @jpeg_write_scanlines(ptr noundef nonnull %19, ptr noundef nonnull %8, i32 noundef 1) #14
  call void @llvm.lifetime.end.p0(i64 8, ptr nonnull %8) #14
  %63 = load i32, ptr %41, align 4
  %64 = load i32, ptr %26, align 4
  %65 = icmp ult i32 %63, %64
  br i1 %65, label %.lr.ph.split.split, label %._crit_edge31

._crit_edge31:                                    ; preds = %.lr.ph.split.split, %._crit_edge.us, %.thread
  call void @jpeg_finish_compress(ptr noundef nonnull %19) #14
  call void @free(ptr noundef %.fr33) #14
  call void @jpeg_destroy_compress(ptr noundef nonnull %19) #14
  %66 = load i64, ptr %17, align 8, !tbaa !81
  %67 = sub i64 %16, %66
  %68 = trunc i64 %67 to i32
  br label %69

69:                                               ; preds = %._crit_edge31, %22
  %.027 = phi i32 [ 1, %22 ], [ %68, %._crit_edge31 ]
  call void @llvm.lifetime.end.p0(i64 1352, ptr nonnull %7) #14
  call void @llvm.lifetime.end.p0(i64 368, ptr nonnull %6) #14
  ret i32 %.027
}